target datalayout = "e-m:e-p270:32:32-p271:32:32-p272:64:64-i64:64-i128:128-f80:128-n8:16:32:64-S128"
target triple = "x86_64-pc-linux-gnu"

@.str.119 = private unnamed_addr constant [8 x i8] c"builtin\00", align 1
@.str.120 = private unnamed_addr constant [4 x i8] c"icu\00", align 1
@.str.121 = private unnamed_addr constant [5 x i8] c"libc\00", align 1
@.str.163 = private unnamed_addr constant [4 x i8] c"???\00", align 1

; Function Attrs: inlinehint nounwind uwtable
define internal ptr @collprovider_name(i8 noundef signext %0) #6 {
  %2 = alloca ptr, align 8
  %3 = alloca i8, align 1
  store i8 %0, ptr %3, align 1
  %4 = load i8, ptr %3, align 1
  %5 = sext i8 %4 to i32
  switch i32 %5, label %9 [
    i32 98, label %6
    i32 105, label %7
    i32 99, label %8
  ]

6:                                                ; preds = %1
  store ptr @.str.119, ptr %2, align 8
  br label %10

7:                                                ; preds = %1
  store ptr @.str.120, ptr %2, align 8
  br label %10

8:                                                ; preds = %1
  store ptr @.str.121, ptr %2, align 8
  br label %10

9:                                                ; preds = %1
  store ptr @.str.163, ptr %2, align 8
  br label %10

10:                                               ; preds = %9, %8, %7, %6
  %11 = load ptr, ptr %2, align 8
  ret ptr %11
}